(dp0
S'countdeclfunction'
p1
F228.0
sS'countlinecomment'
p2
F1598.0
sS'ratiocommenttocode'
p3
F21.0
sS'countlinecode'
p4
F1771.0
sS'committer_contributor_id'
p5
F35.0
sS'sumcyclomatic'
p6
F434.0
sS'countlinecodeexe'
p7
F828.0
sS'countdeclmethodpublic'
p8
F226.0
s.