(dp0
S'countdeclfunction'
p1
F294.0
sS'countlinecomment'
p2
F757.0
sS'ratiocommenttocode'
p3
F25.0
sS'countlinecode'
p4
F2487.0
sS'countdeclmethodprivate'
p5
F41.0
sS'committer_contributor_id'
p6
F38.0
sS'countdeclmethodall'
p7
I0
sS'sumcyclomatic'
p8
F574.0
sS'countlinecodeexe'
p9
F1513.0
sS'countdeclmethodpublic'
p10
F282.0
s.